target datalayout = "e-m:e-p270:32:32-p271:32:32-p272:64:64-i64:64-i128:128-f80:128-n8:16:32:64-S128"
target triple = "x86_64-pc-linux-gnu"

%struct.stb_vorbis = type { i32, i32, i32, i32, i32, ptr, i32, ptr, ptr, i32, i32, ptr, ptr, ptr, i32, i8, i32, %struct.ProbedPage, %struct.ProbedPage, %struct.stb_vorbis_alloc, i32, i32, i32, i32, [2 x i32], i32, i32, i32, ptr, i32, [64 x i16], ptr, i32, [64 x i16], ptr, i32, ptr, i32, [64 x %struct.Mode], i32, [16 x ptr], [16 x ptr], [16 x ptr], i32, [16 x ptr], i32, i32, [2 x ptr], [2 x ptr], [2 x ptr], [2 x ptr], [2 x ptr], i32, i32, i32, [255 x i8], i8, i8, i8, i32, i32, i32, i32, i32, i32, i32, i32, i32, i32, i32, [4 x %struct.CRCscan], i32, i32 }
%struct.ProbedPage = type { i32, i32, i32 }
%struct.stb_vorbis_alloc = type { ptr, i32 }
%struct.Mode = type { i8, i8, i16, i16 }
%struct.CRCscan = type { i32, i32, i32, i32, i32 }

; Function Attrs: nounwind uwtable
define i32 @stb_vorbis_get_samples_short(ptr noundef %0, i32 noundef %1, ptr noundef %2, i32 noundef %3) #0 {
  %5 = alloca ptr, align 8
  %6 = alloca i32, align 4
  %7 = alloca ptr, align 8
  %8 = alloca i32, align 4
  %9 = alloca ptr, align 8
  %10 = alloca i32, align 4
  %11 = alloca i32, align 4
  %12 = alloca i32, align 4
  store ptr %0, ptr %5, align 8, !tbaa !3
  store i32 %1, ptr %6, align 4, !tbaa !8
  store ptr %2, ptr %7, align 8, !tbaa !349
  store i32 %3, ptr %8, align 4, !tbaa !8
  call void @llvm.lifetime.start.p0(i64 8, ptr %9) #11
  call void @llvm.lifetime.start.p0(i64 4, ptr %10) #11
  store i32 0, ptr %10, align 4, !tbaa !8
  br label %13

13:                                               ; preds = %72, %4
  %14 = load i32, ptr %10, align 4, !tbaa !8
  %15 = load i32, ptr %8, align 4, !tbaa !8
  %16 = icmp slt i32 %14, %15
  br i1 %16, label %17, label %73

17:                                               ; preds = %13
  call void @llvm.lifetime.start.p0(i64 4, ptr %11) #11
  %18 = load ptr, ptr %5, align 8, !tbaa !3
  %19 = getelementptr inbounds nuw %struct.stb_vorbis, ptr %18, i32 0, i32 72
  %20 = load i32, ptr %19, align 8, !tbaa !167
  %21 = load ptr, ptr %5, align 8, !tbaa !3
  %22 = getelementptr inbounds nuw %struct.stb_vorbis, ptr %21, i32 0, i32 71
  %23 = load i32, ptr %22, align 4, !tbaa !168
  %24 = sub nsw i32 %20, %23
  store i32 %24, ptr %11, align 4, !tbaa !8
  %25 = load i32, ptr %10, align 4, !tbaa !8
  %26 = load i32, ptr %11, align 4, !tbaa !8
  %27 = add nsw i32 %25, %26
  %28 = load i32, ptr %8, align 4, !tbaa !8
  %29 = icmp sge i32 %27, %28
  br i1 %29, label %30, label %34

30:                                               ; preds = %17
  %31 = load i32, ptr %8, align 4, !tbaa !8
  %32 = load i32, ptr %10, align 4, !tbaa !8
  %33 = sub nsw i32 %31, %32
  store i32 %33, ptr %11, align 4, !tbaa !8
  br label %34

34:                                               ; preds = %30, %17
  %35 = load i32, ptr %11, align 4, !tbaa !8
  %36 = icmp ne i32 %35, 0
  br i1 %36, label %37, label %51

37:                                               ; preds = %34
  %38 = load i32, ptr %6, align 4, !tbaa !8
  %39 = load ptr, ptr %7, align 8, !tbaa !349
  %40 = load i32, ptr %10, align 4, !tbaa !8
  %41 = load ptr, ptr %5, align 8, !tbaa !3
  %42 = getelementptr inbounds nuw %struct.stb_vorbis, ptr %41, i32 0, i32 1
  %43 = load i32, ptr %42, align 4, !tbaa !122
  %44 = load ptr, ptr %5, align 8, !tbaa !3
  %45 = getelementptr inbounds nuw %struct.stb_vorbis, ptr %44, i32 0, i32 40
  %46 = getelementptr inbounds [16 x ptr], ptr %45, i64 0, i64 0
  %47 = load ptr, ptr %5, align 8, !tbaa !3
  %48 = getelementptr inbounds nuw %struct.stb_vorbis, ptr %47, i32 0, i32 71
  %49 = load i32, ptr %48, align 4, !tbaa !168
  %50 = load i32, ptr %11, align 4, !tbaa !8
  call void @convert_samples_short(i32 noundef %38, ptr noundef %39, i32 noundef %40, i32 noundef %43, ptr noundef %46, i32 noundef %49, i32 noundef %50)
  br label %51

51:                                               ; preds = %37, %34
  %52 = load i32, ptr %11, align 4, !tbaa !8
  %53 = load i32, ptr %10, align 4, !tbaa !8
  %54 = add nsw i32 %53, %52
  store i32 %54, ptr %10, align 4, !tbaa !8
  %55 = load i32, ptr %11, align 4, !tbaa !8
  %56 = load ptr, ptr %5, align 8, !tbaa !3
  %57 = getelementptr inbounds nuw %struct.stb_vorbis, ptr %56, i32 0, i32 71
  %58 = load i32, ptr %57, align 4, !tbaa !168
  %59 = add nsw i32 %58, %55
  store i32 %59, ptr %57, align 4, !tbaa !168
  %60 = load i32, ptr %10, align 4, !tbaa !8
  %61 = load i32, ptr %8, align 4, !tbaa !8
  %62 = icmp eq i32 %60, %61
  br i1 %62, label %63, label %64

63:                                               ; preds = %51
  store i32 3, ptr %12, align 4
  br label %70

64:                                               ; preds = %51
  %65 = load ptr, ptr %5, align 8, !tbaa !3
  %66 = call i32 @stb_vorbis_get_frame_float(ptr noundef %65, ptr noundef null, ptr noundef %9)
  %67 = icmp ne i32 %66, 0
  br i1 %67, label %69, label %68

68:                                               ; preds = %64
  store i32 3, ptr %12, align 4
  br label %70

69:                                               ; preds = %64
  store i32 0, ptr %12, align 4
  br label %70

70:                                               ; preds = %69, %68, %63
  call void @llvm.lifetime.end.p0(i64 4, ptr %11) #11
  %71 = load i32, ptr %12, align 4
  switch i32 %71, label %75 [
    i32 0, label %72
    i32 3, label %73
  ]

72:                                               ; preds = %70
  br label %13, !llvm.loop !359

73:                                               ; preds = %70, %13
  %74 = load i32, ptr %10, align 4, !tbaa !8
  store i32 1, ptr %12, align 4
  call void @llvm.lifetime.end.p0(i64 4, ptr %10) #11
  call void @llvm.lifetime.end.p0(i64 8, ptr %9) #11
  ret i32 %74

75:                                               ; preds = %70
  unreachable
}