; Function Attrs: nofree nounwind uwtable
define i32 @stb_vorbis_get_samples_short(ptr noundef %0, i32 noundef %1, ptr noundef readonly captures(none) %2, i32 noundef %3) local_unnamed_addr #17 {
  %5 = alloca ptr, align 8
  call void @llvm.lifetime.start.p0(i64 8, ptr nonnull %5) #35
  %6 = getelementptr inbounds nuw i8, ptr %0, i64 1896
  %7 = getelementptr inbounds nuw i8, ptr %0, i64 1892
  %8 = getelementptr inbounds nuw i8, ptr %0, i64 4
  %9 = getelementptr inbounds nuw i8, ptr %0, i64 888
  br label %10

10:                                               ; preds = %25, %4
  %.026 = phi i32 [ 0, %4 ], [ %22, %25 ]
  %11 = icmp slt i32 %.026, %3
  br i1 %11, label %12, label %.thread

12:                                               ; preds = %10
  %13 = load i32, ptr %6, align 8, !tbaa !154
  %14 = load i32, ptr %7, align 4, !tbaa !155
  %15 = sub nsw i32 %13, %14
  %16 = add nsw i32 %15, %.026
  %.not = icmp slt i32 %16, %3
  %17 = sub nsw i32 %3, %.026
  %spec.select = select i1 %.not, i32 %15, i32 %17
  %.not28 = icmp eq i32 %spec.select, 0
  br i1 %.not28, label %20, label %18

18:                                               ; preds = %12
  %19 = load i32, ptr %8, align 4, !tbaa !110
  call void @convert_samples_short(i32 noundef %1, ptr noundef %2, i32 noundef %.026, i32 noundef %19, ptr noundef nonnull %9, i32 noundef %14, i32 noundef %spec.select)
  %.pre = load i32, ptr %7, align 4, !tbaa !155
  br label %20

20:                                               ; preds = %18, %12
  %21 = phi i32 [ %.pre, %18 ], [ %14, %12 ]
  %22 = add nsw i32 %spec.select, %.026
  %23 = add nsw i32 %21, %spec.select
  store i32 %23, ptr %7, align 4, !tbaa !155
  %24 = icmp eq i32 %22, %3
  br i1 %24, label %.thread, label %25

25:                                               ; preds = %20
  %26 = call i32 @stb_vorbis_get_frame_float(ptr noundef nonnull %0, ptr noundef null, ptr noundef nonnull %5)
  %.not29 = icmp eq i32 %26, 0
  br i1 %.not29, label %.thread, label %10

.thread:                                          ; preds = %25, %20, %10
  %.1 = phi i32 [ %.026, %10 ], [ %3, %20 ], [ %22, %25 ]
  call void @llvm.lifetime.end.p0(i64 8, ptr nonnull %5) #35
  ret i32 %.1
}